target datalayout = "e-m:e-p270:32:32-p271:32:32-p272:64:64-i64:64-i128:128-f80:128-n8:16:32:64-S128"
target triple = "x86_64-pc-linux-gnu"

%"class.icu_77::FormattedStringBuilder" = type { i8, %"union.icu_77::FormattedStringBuilder::ValueOrHeapArray", %"union.icu_77::FormattedStringBuilder::ValueOrHeapArray.0", i32, i32 }
%"union.icu_77::FormattedStringBuilder::ValueOrHeapArray" = type { %struct.anon, [64 x i8] }
%struct.anon = type { ptr, i32 }
%"union.icu_77::FormattedStringBuilder::ValueOrHeapArray.0" = type { %struct.anon.1, [24 x i8] }
%struct.anon.1 = type { ptr, i32 }
%"class.icu_77::UnicodeString" = type { %"class.icu_77::Replaceable", %"union.icu_77::UnicodeString::StackBufferOrFields" }
%"class.icu_77::Replaceable" = type { %"class.icu_77::UObject" }
%"class.icu_77::UObject" = type { ptr }
%"union.icu_77::UnicodeString::StackBufferOrFields" = type { %struct.anon.3, [32 x i8] }
%struct.anon.3 = type { i16, i32, i32, ptr }

; Function Attrs: inlinehint mustprogress nounwind uwtable
define linkonce_odr noundef ptr @_ZNK6icu_7722FormattedStringBuilder10getCharPtrEv(ptr noundef nonnull align 8 dereferenceable(136) %0) #5 comdat align 2 {
  %2 = alloca ptr, align 8
  store ptr %0, ptr %2, align 8, !tbaa !3
  %3 = load ptr, ptr %2, align 8
  %4 = getelementptr inbounds nuw %"class.icu_77::FormattedStringBuilder", ptr %3, i32 0, i32 0
  %5 = load i8, ptr %4, align 8, !tbaa !8, !range !14, !noundef !15
  %6 = trunc i8 %5 to i1
  br i1 %6, label %7, label %11

7:                                                ; preds = %1
  %8 = getelementptr inbounds nuw %"class.icu_77::FormattedStringBuilder", ptr %3, i32 0, i32 1
  %9 = getelementptr inbounds nuw %struct.anon, ptr %8, i32 0, i32 0
  %10 = load ptr, ptr %9, align 8, !tbaa !16
  br label %14

11:                                               ; preds = %1
  %12 = getelementptr inbounds nuw %"class.icu_77::FormattedStringBuilder", ptr %3, i32 0, i32 1
  %13 = getelementptr inbounds [40 x i16], ptr %12, i64 0, i64 0
  br label %14

14:                                               ; preds = %11, %7
  %15 = phi ptr [ %10, %7 ], [ %13, %11 ]
  ret ptr %15
}

; Function Attrs: mustprogress uwtable
define void @_ZNK6icu_7722FormattedStringBuilder15toUnicodeStringEv(ptr dead_on_unwind noalias writable sret(%"class.icu_77::UnicodeString") align 8 %0, ptr noundef nonnull align 8 dereferenceable(136) %1) #3 align 2 {
  %3 = alloca ptr, align 8
  %4 = alloca ptr, align 8
  store ptr %0, ptr %3, align 8
  store ptr %1, ptr %4, align 8, !tbaa !3
  %5 = load ptr, ptr %4, align 8
  %6 = call noundef ptr @_ZNK6icu_7722FormattedStringBuilder10getCharPtrEv(ptr noundef nonnull align 8 dereferenceable(136) %5)
  %7 = getelementptr inbounds nuw %"class.icu_77::FormattedStringBuilder", ptr %5, i32 0, i32 3
  %8 = load i32, ptr %7, align 8, !tbaa !12
  %9 = sext i32 %8 to i64
  %10 = getelementptr inbounds i16, ptr %6, i64 %9
  %11 = getelementptr inbounds nuw %"class.icu_77::FormattedStringBuilder", ptr %5, i32 0, i32 4
  %12 = load i32, ptr %11, align 4, !tbaa !13
  call void @_ZN6icu_7713UnicodeStringC1EPKDsi(ptr noundef nonnull align 8 dereferenceable(64) %0, ptr noundef %10, i32 noundef %12)
  ret void
}