; Function Attrs: mustprogress uwtable
define void @_ZNK6icu_7722FormattedStringBuilder15toUnicodeStringEv(ptr dead_on_unwind noalias nonnull writable sret(%"class.icu_77::UnicodeString") align 8 %0, ptr noundef nonnull align 8 dereferenceable(136) %1) local_unnamed_addr #5 align 2 {
  %3 = load i8, ptr %1, align 8, !tbaa !3, !range !11, !noundef !12
  %4 = trunc nuw i8 %3 to i1
  %5 = getelementptr inbounds nuw i8, ptr %1, i64 8
  %6 = load ptr, ptr %5, align 8
  %7 = select i1 %4, ptr %6, ptr %5
  %8 = getelementptr inbounds nuw i8, ptr %1, i64 128
  %9 = load i32, ptr %8, align 8, !tbaa !9
  %10 = sext i32 %9 to i64
  %11 = getelementptr inbounds i16, ptr %7, i64 %10
  %12 = getelementptr inbounds nuw i8, ptr %1, i64 132
  %13 = load i32, ptr %12, align 4, !tbaa !10
  tail call void @_ZN6icu_7713UnicodeStringC1EPKDsi(ptr noundef nonnull align 8 dereferenceable(64) %0, ptr noundef %11, i32 noundef %13)
  ret void
}